; Function Attrs: cold mustprogress nofree noreturn nounwind uwtable
define internal fastcc void @_ZL5usageRKNSt7__cxx1112basic_stringIcSt11char_traitsIcESaIcEEE(ptr noundef nonnull readonly align 8 captures(none) dereferenceable(32) %0) unnamed_addr #4 personality ptr @__gxx_personality_v0 {
  %2 = getelementptr inbounds nuw i8, ptr %0, i64 8
  %3 = load i64, ptr %2, align 8, !tbaa !26
  %4 = icmp eq i64 %3, 0
  br i1 %4, label %9, label %5

5:                                                ; preds = %1
  %6 = load ptr, ptr @stderr, align 8, !tbaa !66
  %7 = load ptr, ptr %0, align 8, !tbaa !40
  %8 = tail call i32 (ptr, ptr, ...) @fprintf(ptr noundef %6, ptr noundef nonnull @.str.65, ptr noundef %7) #37
  br label %9

9:                                                ; preds = %5, %1
  %10 = load ptr, ptr @stderr, align 8, !tbaa !66
  %11 = tail call i32 (ptr, ptr, ...) @fprintf(ptr noundef %10, ptr noundef nonnull @.str.66, i32 noundef 4) #37
  %12 = load i64, ptr %2, align 8, !tbaa !26
  %13 = icmp ne i64 %12, 0
  %14 = zext i1 %13 to i32
  tail call void @exit(i32 noundef %14) #33
  unreachable
}